; ModuleID = '46/2383.c'
source_filename = "46/2383.c"
target datalayout = "e-m:e-p270:32:32-p271:32:32-p272:64:64-i64:64-f80:128-n8:16:32:64-S128"
target triple = "x86_64-pc-linux-gnu"

@.str = private unnamed_addr constant [5 x i8] c"%d%d\00", align 1
@.str.1 = private unnamed_addr constant [3 x i8] c"%d\00", align 1
@.str.2 = private unnamed_addr constant [4 x i8] c"%d\0A\00", align 1

; Function Attrs: noinline nounwind uwtable
define dso_local i32 @main() #0 {
  %1 = alloca i32, align 4
  %2 = alloca i32, align 4
  %3 = alloca i32, align 4
  %4 = alloca i32, align 4
  %5 = alloca i32, align 4
  %6 = alloca i32, align 4
  %7 = alloca i32, align 4
  %8 = alloca [200 x [200 x i32]], align 16
  store i32 0, i32* %1, align 4
  store i32 0, i32* %7, align 4
  %9 = call i32 (i8*, ...) @__isoc99_scanf(i8* getelementptr inbounds ([5 x i8], [5 x i8]* @.str, i64 0, i64 0), i32* %2, i32* %3)
  store i32 0, i32* %4, align 4
  br label %10

10:                                               ; preds = %31, %0
  %11 = load i32, i32* %4, align 4
  %12 = load i32, i32* %2, align 4
  %13 = icmp slt i32 %11, %12
  br i1 %13, label %14, label %34

14:                                               ; preds = %10
  store i32 0, i32* %5, align 4
  br label %15

15:                                               ; preds = %27, %14
  %16 = load i32, i32* %5, align 4
  %17 = load i32, i32* %3, align 4
  %18 = icmp slt i32 %16, %17
  br i1 %18, label %19, label %30

19:                                               ; preds = %15
  %20 = load i32, i32* %4, align 4
  %21 = sext i32 %20 to i64
  %22 = getelementptr inbounds [200 x [200 x i32]], [200 x [200 x i32]]* %8, i64 0, i64 %21
  %23 = load i32, i32* %5, align 4
  %24 = sext i32 %23 to i64
  %25 = getelementptr inbounds [200 x i32], [200 x i32]* %22, i64 0, i64 %24
  %26 = call i32 (i8*, ...) @__isoc99_scanf(i8* getelementptr inbounds ([3 x i8], [3 x i8]* @.str.1, i64 0, i64 0), i32* %25)
  br label %27

27:                                               ; preds = %19
  %28 = load i32, i32* %5, align 4
  %29 = add nsw i32 %28, 1
  store i32 %29, i32* %5, align 4
  br label %15

30:                                               ; preds = %15
  br label %31

31:                                               ; preds = %30
  %32 = load i32, i32* %4, align 4
  %33 = add nsw i32 %32, 1
  store i32 %33, i32* %4, align 4
  br label %10

34:                                               ; preds = %10
  store i32 0, i32* %4, align 4
  br label %35

35:                                               ; preds = %204, %34
  %36 = load i32, i32* %4, align 4
  %37 = load i32, i32* %2, align 4
  %38 = icmp slt i32 %36, %37
  br i1 %38, label %39, label %207

39:                                               ; preds = %35
  %40 = load i32, i32* %4, align 4
  store i32 %40, i32* %5, align 4
  br label %41

41:                                               ; preds = %74, %39
  %42 = load i32, i32* %5, align 4
  %43 = load i32, i32* %3, align 4
  %44 = load i32, i32* %4, align 4
  %45 = sub nsw i32 %43, %44
  %46 = icmp slt i32 %42, %45
  br i1 %46, label %47, label %77

47:                                               ; preds = %41
  %48 = load i32, i32* %7, align 4
  %49 = add nsw i32 %48, 1
  store i32 %49, i32* %7, align 4
  %50 = load i32, i32* %7, align 4
  %51 = load i32, i32* %2, align 4
  %52 = load i32, i32* %3, align 4
  %53 = mul nsw i32 %51, %52
  %54 = icmp eq i32 %50, %53
  br i1 %54, label %55, label %64

55:                                               ; preds = %47
  %56 = load i32, i32* %4, align 4
  %57 = sext i32 %56 to i64
  %58 = getelementptr inbounds [200 x [200 x i32]], [200 x [200 x i32]]* %8, i64 0, i64 %57
  %59 = load i32, i32* %5, align 4
  %60 = sext i32 %59 to i64
  %61 = getelementptr inbounds [200 x i32], [200 x i32]* %58, i64 0, i64 %60
  %62 = load i32, i32* %61, align 4
  %63 = call i32 (i8*, ...) @printf(i8* getelementptr inbounds ([3 x i8], [3 x i8]* @.str.1, i64 0, i64 0), i32 %62)
  store i32 0, i32* %1, align 4
  br label %208

64:                                               ; preds = %47
  %65 = load i32, i32* %4, align 4
  %66 = sext i32 %65 to i64
  %67 = getelementptr inbounds [200 x [200 x i32]], [200 x [200 x i32]]* %8, i64 0, i64 %66
  %68 = load i32, i32* %5, align 4
  %69 = sext i32 %68 to i64
  %70 = getelementptr inbounds [200 x i32], [200 x i32]* %67, i64 0, i64 %69
  %71 = load i32, i32* %70, align 4
  %72 = call i32 (i8*, ...) @printf(i8* getelementptr inbounds ([4 x i8], [4 x i8]* @.str.2, i64 0, i64 0), i32 %71)
  br label %73

73:                                               ; preds = %64
  br label %74

74:                                               ; preds = %73
  %75 = load i32, i32* %5, align 4
  %76 = add nsw i32 %75, 1
  store i32 %76, i32* %5, align 4
  br label %41

77:                                               ; preds = %41
  %78 = load i32, i32* %3, align 4
  %79 = load i32, i32* %4, align 4
  %80 = sub nsw i32 %78, %79
  %81 = sub nsw i32 %80, 1
  store i32 %81, i32* %5, align 4
  %82 = load i32, i32* %4, align 4
  %83 = add nsw i32 %82, 1
  store i32 %83, i32* %6, align 4
  br label %84

84:                                               ; preds = %117, %77
  %85 = load i32, i32* %6, align 4
  %86 = load i32, i32* %2, align 4
  %87 = load i32, i32* %4, align 4
  %88 = sub nsw i32 %86, %87
  %89 = icmp slt i32 %85, %88
  br i1 %89, label %90, label %120

90:                                               ; preds = %84
  %91 = load i32, i32* %7, align 4
  %92 = add nsw i32 %91, 1
  store i32 %92, i32* %7, align 4
  %93 = load i32, i32* %7, align 4
  %94 = load i32, i32* %2, align 4
  %95 = load i32, i32* %3, align 4
  %96 = mul nsw i32 %94, %95
  %97 = icmp eq i32 %93, %96
  br i1 %97, label %98, label %107

98:                                               ; preds = %90
  %99 = load i32, i32* %6, align 4
  %100 = sext i32 %99 to i64
  %101 = getelementptr inbounds [200 x [200 x i32]], [200 x [200 x i32]]* %8, i64 0, i64 %100
  %102 = load i32, i32* %5, align 4
  %103 = sext i32 %102 to i64
  %104 = getelementptr inbounds [200 x i32], [200 x i32]* %101, i64 0, i64 %103
  %105 = load i32, i32* %104, align 4
  %106 = call i32 (i8*, ...) @printf(i8* getelementptr inbounds ([3 x i8], [3 x i8]* @.str.1, i64 0, i64 0), i32 %105)
  store i32 0, i32* %1, align 4
  br label %208

107:                                              ; preds = %90
  %108 = load i32, i32* %6, align 4
  %109 = sext i32 %108 to i64
  %110 = getelementptr inbounds [200 x [200 x i32]], [200 x [200 x i32]]* %8, i64 0, i64 %109
  %111 = load i32, i32* %5, align 4
  %112 = sext i32 %111 to i64
  %113 = getelementptr inbounds [200 x i32], [200 x i32]* %110, i64 0, i64 %112
  %114 = load i32, i32* %113, align 4
  %115 = call i32 (i8*, ...) @printf(i8* getelementptr inbounds ([4 x i8], [4 x i8]* @.str.2, i64 0, i64 0), i32 %114)
  br label %116

116:                                              ; preds = %107
  br label %117

117:                                              ; preds = %116
  %118 = load i32, i32* %6, align 4
  %119 = add nsw i32 %118, 1
  store i32 %119, i32* %6, align 4
  br label %84

120:                                              ; preds = %84
  %121 = load i32, i32* %2, align 4
  %122 = load i32, i32* %4, align 4
  %123 = sub nsw i32 %121, %122
  %124 = sub nsw i32 %123, 1
  store i32 %124, i32* %6, align 4
  %125 = load i32, i32* %3, align 4
  %126 = load i32, i32* %4, align 4
  %127 = sub nsw i32 %125, %126
  %128 = sub nsw i32 %127, 2
  store i32 %128, i32* %5, align 4
  br label %129

129:                                              ; preds = %160, %120
  %130 = load i32, i32* %5, align 4
  %131 = load i32, i32* %4, align 4
  %132 = icmp sge i32 %130, %131
  br i1 %132, label %133, label %163

133:                                              ; preds = %129
  %134 = load i32, i32* %7, align 4
  %135 = add nsw i32 %134, 1
  store i32 %135, i32* %7, align 4
  %136 = load i32, i32* %7, align 4
  %137 = load i32, i32* %2, align 4
  %138 = load i32, i32* %3, align 4
  %139 = mul nsw i32 %137, %138
  %140 = icmp eq i32 %136, %139
  br i1 %140, label %141, label %150

141:                                              ; preds = %133
  %142 = load i32, i32* %6, align 4
  %143 = sext i32 %142 to i64
  %144 = getelementptr inbounds [200 x [200 x i32]], [200 x [200 x i32]]* %8, i64 0, i64 %143
  %145 = load i32, i32* %5, align 4
  %146 = sext i32 %145 to i64
  %147 = getelementptr inbounds [200 x i32], [200 x i32]* %144, i64 0, i64 %146
  %148 = load i32, i32* %147, align 4
  %149 = call i32 (i8*, ...) @printf(i8* getelementptr inbounds ([3 x i8], [3 x i8]* @.str.1, i64 0, i64 0), i32 %148)
  store i32 0, i32* %1, align 4
  br label %208

150:                                              ; preds = %133
  %151 = load i32, i32* %6, align 4
  %152 = sext i32 %151 to i64
  %153 = getelementptr inbounds [200 x [200 x i32]], [200 x [200 x i32]]* %8, i64 0, i64 %152
  %154 = load i32, i32* %5, align 4
  %155 = sext i32 %154 to i64
  %156 = getelementptr inbounds [200 x i32], [200 x i32]* %153, i64 0, i64 %155
  %157 = load i32, i32* %156, align 4
  %158 = call i32 (i8*, ...) @printf(i8* getelementptr inbounds ([4 x i8], [4 x i8]* @.str.2, i64 0, i64 0), i32 %157)
  br label %159

159:                                              ; preds = %150
  br label %160

160:                                              ; preds = %159
  %161 = load i32, i32* %5, align 4
  %162 = add nsw i32 %161, -1
  store i32 %162, i32* %5, align 4
  br label %129

163:                                              ; preds = %129
  %164 = load i32, i32* %4, align 4
  store i32 %164, i32* %5, align 4
  %165 = load i32, i32* %2, align 4
  %166 = load i32, i32* %4, align 4
  %167 = sub nsw i32 %165, %166
  %168 = sub nsw i32 %167, 2
  store i32 %168, i32* %6, align 4
  br label %169

169:                                              ; preds = %200, %163
  %170 = load i32, i32* %6, align 4
  %171 = load i32, i32* %4, align 4
  %172 = icmp sgt i32 %170, %171
  br i1 %172, label %173, label %203

173:                                              ; preds = %169
  %174 = load i32, i32* %7, align 4
  %175 = add nsw i32 %174, 1
  store i32 %175, i32* %7, align 4
  %176 = load i32, i32* %7, align 4
  %177 = load i32, i32* %2, align 4
  %178 = load i32, i32* %3, align 4
  %179 = mul nsw i32 %177, %178
  %180 = icmp eq i32 %176, %179
  br i1 %180, label %181, label %190

181:                                              ; preds = %173
  %182 = load i32, i32* %6, align 4
  %183 = sext i32 %182 to i64
  %184 = getelementptr inbounds [200 x [200 x i32]], [200 x [200 x i32]]* %8, i64 0, i64 %183
  %185 = load i32, i32* %5, align 4
  %186 = sext i32 %185 to i64
  %187 = getelementptr inbounds [200 x i32], [200 x i32]* %184, i64 0, i64 %186
  %188 = load i32, i32* %187, align 4
  %189 = call i32 (i8*, ...) @printf(i8* getelementptr inbounds ([3 x i8], [3 x i8]* @.str.1, i64 0, i64 0), i32 %188)
  store i32 0, i32* %1, align 4
  br label %208

190:                                              ; preds = %173
  %191 = load i32, i32* %6, align 4
  %192 = sext i32 %191 to i64
  %193 = getelementptr inbounds [200 x [200 x i32]], [200 x [200 x i32]]* %8, i64 0, i64 %192
  %194 = load i32, i32* %5, align 4
  %195 = sext i32 %194 to i64
  %196 = getelementptr inbounds [200 x i32], [200 x i32]* %193, i64 0, i64 %195
  %197 = load i32, i32* %196, align 4
  %198 = call i32 (i8*, ...) @printf(i8* getelementptr inbounds ([4 x i8], [4 x i8]* @.str.2, i64 0, i64 0), i32 %197)
  br label %199

199:                                              ; preds = %190
  br label %200

200:                                              ; preds = %199
  %201 = load i32, i32* %6, align 4
  %202 = add nsw i32 %201, -1
  store i32 %202, i32* %6, align 4
  br label %169

203:                                              ; preds = %169
  br label %204

204:                                              ; preds = %203
  %205 = load i32, i32* %4, align 4
  %206 = add nsw i32 %205, 1
  store i32 %206, i32* %4, align 4
  br label %35

207:                                              ; preds = %35
  store i32 0, i32* %1, align 4
  br label %208

208:                                              ; preds = %207, %181, %141, %98, %55
  %209 = load i32, i32* %1, align 4
  ret i32 %209
}

declare dso_local i32 @__isoc99_scanf(i8*, ...) #1

declare dso_local i32 @printf(i8*, ...) #1


!llvm.module.flags = !{!0}
!llvm.ident = !{!1}

!0 = !{i32 1, !"wchar_size", i32 4}
!1 = !{!"clang version 10.0.0-4ubuntu1 "}
